target datalayout = "e-m:e-p270:32:32-p271:32:32-p272:64:64-i64:64-i128:128-f80:128-n8:16:32:64-S128"
target triple = "x86_64-unknown-linux-gnu"

%class.symbol = type { ptr }
%class.rational = type { %class.mpq }
%class.mpq = type { %class.mpz, %class.mpz }
%class.mpz = type { i32, i8, ptr }
%class.pb2bv_rewriter = type { ptr }
%"struct.pb2bv_rewriter::imp" = type { ptr, %class.params_ref, %class.ref_vector, %class.ref_vector.0, %class.svector, i32, i32, i32, %"class.pb2bv_rewriter::imp::card_pb_rewriter" }
%class.params_ref = type { ptr }
%class.ref_vector = type { %class.ref_vector_core }
%class.ref_vector_core = type { %class.ref_manager_wrapper, %class.ptr_vector }
%class.ref_manager_wrapper = type { ptr }
%class.ptr_vector = type { %class.vector }
%class.vector = type { ptr }
%class.ref_vector.0 = type { %class.ref_vector_core.1 }
%class.ref_vector_core.1 = type { %class.ref_manager_wrapper.2, %class.ptr_vector.3 }
%class.ref_manager_wrapper.2 = type { ptr }
%class.ptr_vector.3 = type { %class.vector.4 }
%class.vector.4 = type { ptr }
%class.svector = type { %class.vector.5 }
%class.vector.5 = type { ptr }
%"class.pb2bv_rewriter::imp::card_pb_rewriter" = type { %class.rewriter_tpl, %"struct.pb2bv_rewriter::imp::card2bv_rewriter_cfg" }
%class.rewriter_tpl = type { %class.rewriter_core, ptr, i32, %class.ptr_vector, %class.var_shifter, %class.inv_var_shifter, %class.obj_ref, %class.obj_ref.17, %class.obj_ref.17, %class.svector }
%class.rewriter_core = type { ptr, ptr, i8, i8, %class.ptr_vector.6, ptr, %class.svector.8, %class.ref_vector, %class.ptr_vector.6, ptr, %class.ref_vector.10, %class.obj_hashtable, ptr, i32, %class.svector.15 }
%class.svector.8 = type { %class.vector.9 }
%class.vector.9 = type { ptr }
%class.ptr_vector.6 = type { %class.vector.7 }
%class.vector.7 = type { ptr }
%class.ref_vector.10 = type { %class.ref_vector_core.11 }
%class.ref_vector_core.11 = type { %class.ref_manager_wrapper.12, %class.ptr_vector.13 }
%class.ref_manager_wrapper.12 = type { ptr }
%class.ptr_vector.13 = type { %class.vector.14 }
%class.vector.14 = type { ptr }
%class.obj_hashtable = type { %class.core_hashtable.base, [4 x i8] }
%class.core_hashtable.base = type <{ ptr, i32, i32, i32 }>
%class.svector.15 = type { %class.vector.16 }
%class.vector.16 = type { ptr }
%class.var_shifter = type <{ %class.var_shifter_core, i32, i32, i32, [4 x i8] }>
%class.var_shifter_core = type { %class.rewriter_core }
%class.inv_var_shifter = type <{ %class.var_shifter_core, i32, [4 x i8] }>
%class.obj_ref = type { ptr, ptr }
%class.obj_ref.17 = type { ptr, ptr }
%"struct.pb2bv_rewriter::imp::card2bv_rewriter_cfg" = type { %"struct.pb2bv_rewriter::imp::card2bv_rewriter" }
%"struct.pb2bv_rewriter::imp::card2bv_rewriter" = type { %class.psort_nw, ptr, ptr, %class.arith_util, %class.pb_util, %class.bv_util, %class.ref_vector, %class.ref_vector, %class.rational, %class.vector.18, i8, %class.symbol, i32, %class.vector.18, %class.rational, %class.vector.18 }
%class.psort_nw = type { %struct.sorting_network_config, ptr, i32, %"struct.psort_nw<pb2bv_rewriter::imp::card2bv_rewriter>::stats" }
%struct.sorting_network_config = type { i32 }
%"struct.psort_nw<pb2bv_rewriter::imp::card2bv_rewriter>::stats" = type { i32, i32, i32 }
%class.arith_util = type { ptr, ptr }
%class.pb_util = type { ptr, i32, %class.vector.18, %class.vector.19, %class.rational }
%class.vector.19 = type { ptr }
%class.bv_util = type { %class.bv_recognizers, ptr, ptr }
%class.bv_recognizers = type { i32 }
%class.vector.18 = type { ptr }

; Function Attrs: mustprogress uwtable
define linkonce_odr hidden void @_Z7deallocIN14pb2bv_rewriter3impEEvPT_(ptr noundef %ptr) #4 comdat {
entry:
  %ptr.addr = alloca ptr, align 8
  store ptr %ptr, ptr %ptr.addr, align 8
  %0 = load ptr, ptr %ptr.addr, align 8
  %cmp = icmp eq ptr %0, null
  br i1 %cmp, label %if.then, label %if.end

if.then:                                          ; preds = %entry
  br label %return

if.end:                                           ; preds = %entry
  %1 = load ptr, ptr %ptr.addr, align 8
  call void @_ZN14pb2bv_rewriter3impD2Ev(ptr noundef nonnull align 8 dereferenceable(904) %1) #3
  %2 = load ptr, ptr %ptr.addr, align 8
  call void @_ZN6memory10deallocateEPv(ptr noundef %2)
  br label %return

return:                                           ; preds = %if.end, %if.then
  ret void
}

; Function Attrs: mustprogress nounwind uwtable
define hidden noundef nonnull align 8 dereferenceable(976) ptr @_ZNK14pb2bv_rewriter1mEv(ptr noundef nonnull align 8 dereferenceable(8) %this) #5 align 2 {
entry:
  %this.addr = alloca ptr, align 8
  store ptr %this, ptr %this.addr, align 8
  %this1 = load ptr, ptr %this.addr, align 8
  %m_imp = getelementptr inbounds %class.pb2bv_rewriter, ptr %this1, i32 0, i32 0
  %0 = load ptr, ptr %m_imp, align 8
  %m = getelementptr inbounds %"struct.pb2bv_rewriter::imp", ptr %0, i32 0, i32 0
  %1 = load ptr, ptr %m, align 8
  ret ptr %1
}

; Function Attrs: mustprogress uwtable
define hidden void @_ZN14pb2bv_rewriter7cleanupEv(ptr noundef nonnull align 8 dereferenceable(8) %this) #4 align 2 personality ptr @__gxx_personality_v0 {
entry:
  %this.addr = alloca ptr, align 8
  %mgr = alloca ptr, align 8
  %p = alloca %class.params_ref, align 8
  %exn.slot = alloca ptr, align 8
  %ehselector.slot = alloca i32, align 4
  store ptr %this, ptr %this.addr, align 8
  %this1 = load ptr, ptr %this.addr, align 8
  %call = call noundef nonnull align 8 dereferenceable(976) ptr @_ZNK14pb2bv_rewriter1mEv(ptr noundef nonnull align 8 dereferenceable(8) %this1)
  store ptr %call, ptr %mgr, align 8
  %m_imp = getelementptr inbounds %class.pb2bv_rewriter, ptr %this1, i32 0, i32 0
  %0 = load ptr, ptr %m_imp, align 8
  %m_params = getelementptr inbounds %"struct.pb2bv_rewriter::imp", ptr %0, i32 0, i32 1
  call void @_ZN10params_refC1ERKS_(ptr noundef nonnull align 8 dereferenceable(8) %p, ptr noundef nonnull align 8 dereferenceable(8) %m_params)
  %m_imp2 = getelementptr inbounds %class.pb2bv_rewriter, ptr %this1, i32 0, i32 0
  %1 = load ptr, ptr %m_imp2, align 8
  invoke void @_Z7deallocIN14pb2bv_rewriter3impEEvPT_(ptr noundef %1)
          to label %invoke.cont unwind label %lpad

invoke.cont:                                      ; preds = %entry
  %call4 = invoke noalias noundef ptr @_ZN6memory8allocateEm(i64 noundef 904)
          to label %invoke.cont3 unwind label %lpad

invoke.cont3:                                     ; preds = %invoke.cont
  %2 = load ptr, ptr %mgr, align 8
  invoke void @_ZN14pb2bv_rewriter3impC2ER11ast_managerRK10params_ref(ptr noundef nonnull align 8 dereferenceable(904) %call4, ptr noundef nonnull align 8 dereferenceable(976) %2, ptr noundef nonnull align 8 dereferenceable(8) %p)
          to label %invoke.cont5 unwind label %lpad

invoke.cont5:                                     ; preds = %invoke.cont3
  %m_imp6 = getelementptr inbounds %class.pb2bv_rewriter, ptr %this1, i32 0, i32 0
  store ptr %call4, ptr %m_imp6, align 8
  call void @_ZN10params_refD1Ev(ptr noundef nonnull align 8 dereferenceable(8) %p) #3
  ret void

lpad:                                             ; preds = %invoke.cont3, %invoke.cont, %entry
  %3 = landingpad { ptr, i32 }
          cleanup
  %4 = extractvalue { ptr, i32 } %3, 0
  store ptr %4, ptr %exn.slot, align 8
  %5 = extractvalue { ptr, i32 } %3, 1
  store i32 %5, ptr %ehselector.slot, align 4
  call void @_ZN10params_refD1Ev(ptr noundef nonnull align 8 dereferenceable(8) %p) #3
  br label %eh.resume

eh.resume:                                        ; preds = %lpad
  %exn = load ptr, ptr %exn.slot, align 8
  %sel = load i32, ptr %ehselector.slot, align 4
  %lpad.val = insertvalue { ptr, i32 } poison, ptr %exn, 0
  %lpad.val7 = insertvalue { ptr, i32 } %lpad.val, i32 %sel, 1
  resume { ptr, i32 } %lpad.val7
}