; Function Attrs: mustprogress uwtable
define hidden void @_ZN14pb2bv_rewriter7cleanupEv(ptr nocapture noundef nonnull align 8 dereferenceable(8) %this) local_unnamed_addr #3 align 2 personality ptr @__gxx_personality_v0 {
entry:
  %p = alloca %class.params_ref, align 8
  %0 = load ptr, ptr %this, align 8
  %1 = load ptr, ptr %0, align 8
  %m_params = getelementptr inbounds i8, ptr %0, i64 8
  call void @_ZN10params_refC1ERKS_(ptr noundef nonnull align 8 dereferenceable(8) %p, ptr noundef nonnull align 8 dereferenceable(8) %m_params)
  %2 = load ptr, ptr %this, align 8
  %cmp.i = icmp eq ptr %2, null
  br i1 %cmp.i, label %invoke.cont, label %if.end.i

if.end.i:                                         ; preds = %entry
  call void @_ZN14pb2bv_rewriter3impD2Ev(ptr noundef nonnull align 8 dereferenceable(904) %2) #20
  invoke void @_ZN6memory10deallocateEPv(ptr noundef nonnull %2)
          to label %invoke.cont unwind label %lpad

invoke.cont:                                      ; preds = %entry, %if.end.i
  %call4 = invoke noalias noundef ptr @_ZN6memory8allocateEm(i64 noundef 904)
          to label %invoke.cont3 unwind label %lpad

invoke.cont3:                                     ; preds = %invoke.cont
  invoke void @_ZN14pb2bv_rewriter3impC2ER11ast_managerRK10params_ref(ptr noundef nonnull align 8 dereferenceable(904) %call4, ptr noundef nonnull align 8 dereferenceable(976) %1, ptr noundef nonnull align 8 dereferenceable(8) %p)
          to label %invoke.cont5 unwind label %lpad

invoke.cont5:                                     ; preds = %invoke.cont3
  store ptr %call4, ptr %this, align 8
  call void @_ZN10params_refD1Ev(ptr noundef nonnull align 8 dereferenceable(8) %p) #20
  ret void

lpad:                                             ; preds = %if.end.i, %invoke.cont3, %invoke.cont
  %3 = landingpad { ptr, i32 }
          cleanup
  call void @_ZN10params_refD1Ev(ptr noundef nonnull align 8 dereferenceable(8) %p) #20
  resume { ptr, i32 } %3
}